; Function Attrs: mustprogress nounwind uwtable
define hidden noundef ptr @_ZN16G1MonotonicArena8allocateEv(ptr noundef nonnull align 8 dereferenceable(72) %0) unnamed_addr #1 align 2 {
  %2 = getelementptr inbounds i8, ptr %0, i64 24
  %3 = load volatile ptr, ptr %2, align 8
  tail call void asm sideeffect "", "~{memory},~{dirflag},~{fpsr},~{flags}"() #8, !srcloc !12
  %4 = icmp eq ptr %3, null
  br i1 %4, label %5, label %.preheader

5:                                                ; preds = %1
  %6 = tail call noundef ptr @_ZN16G1MonotonicArena11new_segmentEPNS_7SegmentE(ptr noundef nonnull align 8 dereferenceable(72) %0, ptr noundef null)
  br label %.preheader

.preheader:                                       ; preds = %5, %1
  %.1.ph = phi ptr [ %3, %1 ], [ %6, %5 ]
  br label %7

7:                                                ; preds = %.preheader, %_ZN16G1MonotonicArena7Segment13allocate_slotEv.exit.thread
  %.1 = phi ptr [ %40, %_ZN16G1MonotonicArena7Segment13allocate_slotEv.exit.thread ], [ %.1.ph, %.preheader ]
  %8 = getelementptr inbounds i8, ptr %.1, i64 16
  %9 = load volatile i32, ptr %8, align 8
  %10 = getelementptr inbounds i8, ptr %.1, i64 4
  %11 = load i32, ptr %10, align 4
  %.not.i = icmp ult i32 %9, %11
  br i1 %.not.i, label %12, label %_ZN16G1MonotonicArena7Segment13allocate_slotEv.exit.thread

12:                                               ; preds = %7
  %13 = tail call noundef i32 asm sideeffect "lock xaddl $0,($2)", "=r,0,r,~{cc},~{memory},~{dirflag},~{fpsr},~{flags}"(i32 1, ptr nonnull %8) #8, !srcloc !15
  %14 = load i32, ptr %10, align 4
  %.not5.i = icmp ult i32 %13, %14
  br i1 %.not5.i, label %_ZN16G1MonotonicArena7Segment13allocate_slotEv.exit, label %_ZN16G1MonotonicArena7Segment13allocate_slotEv.exit.thread

_ZN16G1MonotonicArena7Segment13allocate_slotEv.exit: ; preds = %12
  %15 = getelementptr inbounds i8, ptr %.1, i64 24
  %16 = load ptr, ptr %15, align 8
  %.not = icmp eq ptr %16, null
  br i1 %.not, label %_ZN16G1MonotonicArena7Segment13allocate_slotEv.exit.thread, label %17

17:                                               ; preds = %_ZN16G1MonotonicArena7Segment13allocate_slotEv.exit
  %18 = load i32, ptr %.1, align 8
  %19 = zext i32 %13 to i64
  %20 = zext i32 %18 to i64
  %21 = mul nuw i64 %20, %19
  %22 = getelementptr inbounds i8, ptr %16, i64 %21
  %23 = getelementptr inbounds i8, ptr %0, i64 68
  %24 = tail call noundef i32 asm sideeffect "lock xaddl $0,($2)", "=r,0,r,~{cc},~{memory},~{dirflag},~{fpsr},~{flags}"(i32 1, ptr nonnull %23) #8, !srcloc !15
  %25 = getelementptr inbounds i8, ptr %0, i64 16
  %26 = load ptr, ptr %25, align 8
  %27 = getelementptr inbounds i8, ptr %26, i64 24
  %28 = load i32, ptr %27, align 8
  %29 = ptrtoint ptr %22 to i64
  %30 = add i32 %28, -1
  %31 = zext i32 %30 to i64
  %32 = and i64 %31, %29
  %33 = icmp eq i64 %32, 0
  br i1 %33, label %39, label %34

34:                                               ; preds = %17
  %35 = load ptr, ptr @g_assert_poison, align 8
  store i8 88, ptr %35, align 1
  %36 = load ptr, ptr %25, align 8
  %37 = getelementptr inbounds i8, ptr %36, i64 24
  %38 = load i32, ptr %37, align 8
  tail call void (ptr, i32, ptr, ptr, ...) @_Z15report_vm_errorPKciS0_S0_z(ptr noundef nonnull @.str.4, i32 noundef 207, ptr noundef nonnull @.str.5, ptr noundef nonnull @.str.6, i64 noundef %29, i32 noundef %38) #9
  unreachable

39:                                               ; preds = %17
  ret ptr %22

_ZN16G1MonotonicArena7Segment13allocate_slotEv.exit.thread: ; preds = %12, %7, %_ZN16G1MonotonicArena7Segment13allocate_slotEv.exit
  %40 = tail call noundef ptr @_ZN16G1MonotonicArena11new_segmentEPNS_7SegmentE(ptr noundef nonnull align 8 dereferenceable(72) %0, ptr noundef nonnull %.1)
  br label %7, !llvm.loop !16
}